target datalayout = "e-m:e-p270:32:32-p271:32:32-p272:64:64-i64:64-i128:128-f80:128-n8:16:32:64-S128"
target triple = "x86_64-pc-linux-gnu"

%struct._object = type { %union.anon, ptr }
%union.anon = type { i64 }
%struct._typeobject = type { %struct.PyVarObject, ptr, i64, i64, ptr, i64, ptr, ptr, ptr, ptr, ptr, ptr, ptr, ptr, ptr, ptr, ptr, ptr, ptr, i64, ptr, ptr, ptr, ptr, i64, ptr, ptr, ptr, ptr, ptr, ptr, ptr, ptr, ptr, i64, ptr, ptr, ptr, ptr, ptr, ptr, ptr, ptr, ptr, ptr, ptr, i32, ptr, ptr, i8, i16 }
%struct.PyVarObject = type { %struct._object, i64 }
%struct.pysqlite_state = type { ptr, ptr, ptr, ptr, ptr, ptr, ptr, ptr, ptr, ptr, ptr, ptr, ptr, i32, i32, ptr, ptr, ptr, ptr, ptr, ptr, ptr, ptr, ptr, ptr, ptr, ptr, ptr, ptr }

@.str.110 = private unnamed_addr constant [17 x i8] c"register_adapter\00", align 1
@_Py_NoneStruct = external global %struct._object, align 8
@PyLong_Type = external global %struct._typeobject, align 8
@PyFloat_Type = external global %struct._typeobject, align 8
@PyUnicode_Type = external global %struct._typeobject, align 8
@PyByteArray_Type = external global %struct._typeobject, align 8

; Function Attrs: inlinehint nounwind uwtable
define internal ptr @pysqlite_get_state(ptr noundef %0) #3 {
  %2 = alloca ptr, align 8
  %3 = alloca ptr, align 8
  store ptr %0, ptr %2, align 8, !tbaa !15
  call void @llvm.lifetime.start.p0(i64 8, ptr %3) #6
  %4 = load ptr, ptr %2, align 8, !tbaa !15
  %5 = call ptr @PyModule_GetState(ptr noundef %4)
  store ptr %5, ptr %3, align 8, !tbaa !17
  %6 = load ptr, ptr %3, align 8, !tbaa !17
  call void @llvm.lifetime.end.p0(i64 8, ptr %3) #6
  ret ptr %6
}

; Function Attrs: nounwind uwtable
define internal ptr @pysqlite_register_adapter_impl(ptr noundef %0, ptr noundef %1, ptr noundef %2) #0 {
  %4 = alloca ptr, align 8
  %5 = alloca ptr, align 8
  %6 = alloca ptr, align 8
  %7 = alloca ptr, align 8
  %8 = alloca i32, align 4
  %9 = alloca ptr, align 8
  %10 = alloca ptr, align 8
  %11 = alloca ptr, align 8
  %12 = alloca i32, align 4
  store ptr %0, ptr %5, align 8, !tbaa !15
  store ptr %1, ptr %6, align 8, !tbaa !43
  store ptr %2, ptr %7, align 8, !tbaa !15
  call void @llvm.lifetime.start.p0(i64 4, ptr %8) #6
  %13 = load ptr, ptr %6, align 8, !tbaa !43
  %14 = icmp eq ptr %13, @PyLong_Type
  br i1 %14, label %24, label %15

15:                                               ; preds = %3
  %16 = load ptr, ptr %6, align 8, !tbaa !43
  %17 = icmp eq ptr %16, @PyFloat_Type
  br i1 %17, label %24, label %18

18:                                               ; preds = %15
  %19 = load ptr, ptr %6, align 8, !tbaa !43
  %20 = icmp eq ptr %19, @PyUnicode_Type
  br i1 %20, label %24, label %21

21:                                               ; preds = %18
  %22 = load ptr, ptr %6, align 8, !tbaa !43
  %23 = icmp eq ptr %22, @PyByteArray_Type
  br i1 %23, label %24, label %29

24:                                               ; preds = %21, %18, %15, %3
  call void @llvm.lifetime.start.p0(i64 8, ptr %9) #6
  %25 = load ptr, ptr %5, align 8, !tbaa !15
  %26 = call ptr @pysqlite_get_state(ptr noundef %25)
  store ptr %26, ptr %9, align 8, !tbaa !17
  %27 = load ptr, ptr %9, align 8, !tbaa !17
  %28 = getelementptr inbounds nuw %struct.pysqlite_state, ptr %27, i32 0, i32 13
  store i32 1, ptr %28, align 8, !tbaa !59
  call void @llvm.lifetime.end.p0(i64 8, ptr %9) #6
  br label %29

29:                                               ; preds = %24, %21
  call void @llvm.lifetime.start.p0(i64 8, ptr %10) #6
  %30 = load ptr, ptr %5, align 8, !tbaa !15
  %31 = call ptr @pysqlite_get_state(ptr noundef %30)
  store ptr %31, ptr %10, align 8, !tbaa !17
  call void @llvm.lifetime.start.p0(i64 8, ptr %11) #6
  %32 = load ptr, ptr %10, align 8, !tbaa !17
  %33 = getelementptr inbounds nuw %struct.pysqlite_state, ptr %32, i32 0, i32 18
  %34 = load ptr, ptr %33, align 8, !tbaa !33
  store ptr %34, ptr %11, align 8, !tbaa !15
  %35 = load ptr, ptr %10, align 8, !tbaa !17
  %36 = load ptr, ptr %6, align 8, !tbaa !43
  %37 = load ptr, ptr %11, align 8, !tbaa !15
  %38 = load ptr, ptr %7, align 8, !tbaa !15
  %39 = call i32 @pysqlite_microprotocols_add(ptr noundef %35, ptr noundef %36, ptr noundef %37, ptr noundef %38)
  store i32 %39, ptr %8, align 4, !tbaa !3
  %40 = load i32, ptr %8, align 4, !tbaa !3
  %41 = icmp eq i32 %40, -1
  br i1 %41, label %42, label %43

42:                                               ; preds = %29
  store ptr null, ptr %4, align 8
  store i32 1, ptr %12, align 4
  br label %44

43:                                               ; preds = %29
  store ptr @_Py_NoneStruct, ptr %4, align 8
  store i32 1, ptr %12, align 4
  br label %44

44:                                               ; preds = %43, %42
  call void @llvm.lifetime.end.p0(i64 8, ptr %11) #6
  call void @llvm.lifetime.end.p0(i64 8, ptr %10) #6
  call void @llvm.lifetime.end.p0(i64 4, ptr %8) #6
  %45 = load ptr, ptr %4, align 8
  ret ptr %45
}

; Function Attrs: nounwind uwtable
define internal ptr @pysqlite_register_adapter(ptr noundef %0, ptr noundef %1, i64 noundef %2) #0 {
  %4 = alloca ptr, align 8
  %5 = alloca ptr, align 8
  %6 = alloca i64, align 8
  %7 = alloca ptr, align 8
  %8 = alloca ptr, align 8
  %9 = alloca ptr, align 8
  store ptr %0, ptr %4, align 8, !tbaa !15
  store ptr %1, ptr %5, align 8, !tbaa !39
  store i64 %2, ptr %6, align 8, !tbaa !44
  call void @llvm.lifetime.start.p0(i64 8, ptr %7) #6
  store ptr null, ptr %7, align 8, !tbaa !15
  call void @llvm.lifetime.start.p0(i64 8, ptr %8) #6
  call void @llvm.lifetime.start.p0(i64 8, ptr %9) #6
  %10 = load i64, ptr %6, align 8, !tbaa !44
  %11 = icmp sle i64 2, %10
  br i1 %11, label %12, label %15

12:                                               ; preds = %3
  %13 = load i64, ptr %6, align 8, !tbaa !44
  %14 = icmp sle i64 %13, 2
  br i1 %14, label %20, label %15

15:                                               ; preds = %12, %3
  %16 = load i64, ptr %6, align 8, !tbaa !44
  %17 = call i32 @_PyArg_CheckPositional(ptr noundef @.str.110, i64 noundef %16, i64 noundef 2, i64 noundef 2)
  %18 = icmp ne i32 %17, 0
  br i1 %18, label %20, label %19

19:                                               ; preds = %15
  br label %31

20:                                               ; preds = %15, %12
  %21 = load ptr, ptr %5, align 8, !tbaa !39
  %22 = getelementptr ptr, ptr %21, i64 0
  %23 = load ptr, ptr %22, align 8, !tbaa !15
  store ptr %23, ptr %8, align 8, !tbaa !43
  %24 = load ptr, ptr %5, align 8, !tbaa !39
  %25 = getelementptr ptr, ptr %24, i64 1
  %26 = load ptr, ptr %25, align 8, !tbaa !15
  store ptr %26, ptr %9, align 8, !tbaa !15
  %27 = load ptr, ptr %4, align 8, !tbaa !15
  %28 = load ptr, ptr %8, align 8, !tbaa !43
  %29 = load ptr, ptr %9, align 8, !tbaa !15
  %30 = call ptr @pysqlite_register_adapter_impl(ptr noundef %27, ptr noundef %28, ptr noundef %29)
  store ptr %30, ptr %7, align 8, !tbaa !15
  br label %31

31:                                               ; preds = %20, %19
  %32 = load ptr, ptr %7, align 8, !tbaa !15
  call void @llvm.lifetime.end.p0(i64 8, ptr %9) #6
  call void @llvm.lifetime.end.p0(i64 8, ptr %8) #6
  call void @llvm.lifetime.end.p0(i64 8, ptr %7) #6
  ret ptr %32
}