; Function Attrs: nounwind uwtable
define internal ptr @pysqlite_register_adapter(ptr noundef %0, ptr noundef readonly captures(none) %1, i64 noundef %2) #2 {
  %or.cond = icmp eq i64 %2, 2
  br i1 %or.cond, label %6, label %4

4:                                                ; preds = %3
  %5 = tail call i32 @_PyArg_CheckPositional(ptr noundef nonnull @.str.110, i64 noundef %2, i64 noundef 2, i64 noundef 2) #5
  %.not = icmp eq i32 %5, 0
  br i1 %.not, label %22, label %6

6:                                                ; preds = %3, %4
  %7 = load ptr, ptr %1, align 8, !tbaa !36
  %8 = getelementptr i8, ptr %1, i64 8
  %9 = load ptr, ptr %8, align 8, !tbaa !36
  %10 = icmp eq ptr %7, @PyLong_Type
  %11 = icmp eq ptr %7, @PyFloat_Type
  %or.cond.i = or i1 %10, %11
  %12 = icmp eq ptr %7, @PyUnicode_Type
  %or.cond3.i = or i1 %12, %or.cond.i
  %13 = icmp eq ptr %7, @PyByteArray_Type
  %or.cond5.i = or i1 %13, %or.cond3.i
  br i1 %or.cond5.i, label %14, label %pysqlite_register_adapter_impl.exit

14:                                               ; preds = %6
  %15 = tail call ptr @PyModule_GetState(ptr noundef %0) #5
  %16 = getelementptr inbounds nuw i8, ptr %15, i64 104
  store i32 1, ptr %16, align 8, !tbaa !52
  br label %pysqlite_register_adapter_impl.exit

pysqlite_register_adapter_impl.exit:              ; preds = %6, %14
  %17 = tail call ptr @PyModule_GetState(ptr noundef %0) #5
  %18 = getelementptr inbounds nuw i8, ptr %17, i64 136
  %19 = load ptr, ptr %18, align 8, !tbaa !30
  %20 = tail call i32 @pysqlite_microprotocols_add(ptr noundef %17, ptr noundef %7, ptr noundef %19, ptr noundef %9) #5
  %21 = icmp eq i32 %20, -1
  %._Py_NoneStruct.i = select i1 %21, ptr null, ptr @_Py_NoneStruct
  br label %22

22:                                               ; preds = %4, %pysqlite_register_adapter_impl.exit
  %.0 = phi ptr [ %._Py_NoneStruct.i, %pysqlite_register_adapter_impl.exit ], [ null, %4 ]
  ret ptr %.0
}